target datalayout = "e-m:e-p270:32:32-p271:32:32-p272:64:64-i64:64-i128:128-f80:128-n8:16:32:64-S128"
target triple = "x86_64-pc-linux-gnu"

%struct.Curl_cftype = type { ptr, i32, i32, ptr, ptr, ptr, ptr, ptr, ptr, ptr, ptr, ptr, ptr, ptr, ptr }
%struct.Curl_cfilter = type { ptr, ptr, ptr, ptr, i32, i8 }
%struct.Curl_llist_element = type { ptr, ptr, ptr }
%struct.ssl_primary_config = type { ptr, ptr, ptr, ptr, ptr, ptr, ptr, ptr, ptr, ptr, ptr, ptr, i8, i32, i8, i8 }
%struct.curltime = type { i64, i32 }
%struct.Curl_llist = type { ptr, ptr, ptr, i64 }
%struct.dynbuf = type { ptr, i64, i64, i64 }
%struct.Curl_easy = type { i32, i64, ptr, ptr, ptr, %struct.Curl_llist_element, %struct.Curl_llist_element, i32, i32, %struct.Curl_message, %struct.easy_pollset, %struct.Names, ptr, ptr, ptr, %struct.SingleRequest, %struct.UserDefined, ptr, ptr, %struct.Progress, %struct.UrlState, ptr, %struct.PureInfo, %struct.curl_tlssessioninfo }
%struct.Curl_message = type { %struct.Curl_llist_element, %struct.CURLMsg }
%struct.CURLMsg = type { i32, ptr, %union.anon.0 }
%union.anon.0 = type { ptr }
%struct.easy_pollset = type { [5 x i32], i32, [5 x i8] }
%struct.Names = type { ptr, i32 }
%struct.SingleRequest = type <{ i64, i64, i64, i64, i64, %struct.curltime, i32, i32, i32, i32, i64, i32, i32, %struct.curltime, i32, i32, ptr, i64, i64, ptr, ptr, i64, ptr, %union.anon.1, ptr, [2 x i8], i8, i16, [3 x i8] }>
%union.anon.1 = type { ptr }
%struct.UserDefined = type <{ ptr, ptr, ptr, ptr, ptr, ptr, i16, [6 x i8], i64, i64, i64, ptr, ptr, i64, i16, i16, [4 x i8], ptr, ptr, ptr, ptr, ptr, ptr, ptr, ptr, ptr, ptr, ptr, ptr, ptr, ptr, ptr, ptr, ptr, ptr, ptr, ptr, ptr, ptr, ptr, i32, i32, i32, i32, i64, i64, i64, i64, i64, i64, i64, i64, ptr, ptr, %struct.curl_mimepart, ptr, ptr, i64, i8, i8, i8, [5 x i8], %struct.ssl_config_data, %struct.ssl_config_data, ptr, i16, i8, i8, [4 x i8], %struct.ssl_general_config, i32, i32, i32, [4 x i8], ptr, ptr, i8, [7 x i8], i64, i8, i8, i8, i8, i32, ptr, ptr, ptr, i8, i8, [2 x i8], i32, [80 x ptr], [8 x ptr], i32, i32, i32, [4 x i8], ptr, ptr, ptr, ptr, ptr, i8, [3 x i8], i32, i32, [4 x i8], i64, %struct.Curl_data_priority, ptr, ptr, i64, ptr, ptr, ptr, ptr, ptr, i8, [3 x i8], i32, i8, i8, i56, [6 x i8] }>
%struct.curl_mimepart = type { ptr, ptr, i32, i32, ptr, ptr, ptr, ptr, ptr, ptr, ptr, ptr, ptr, ptr, ptr, i64, %struct.mime_state, ptr, %struct.mime_encoder_state, i64 }
%struct.mime_state = type { i32, ptr, i64 }
%struct.mime_encoder_state = type { i64, i64, i64, [256 x i8] }
%struct.ssl_config_data = type { %struct.ssl_primary_config, i64, ptr, ptr, ptr, ptr, ptr, ptr, ptr, i8 }
%struct.ssl_general_config = type { i64, i32 }
%struct.Curl_data_priority = type { ptr, ptr, i32, i8 }
%struct.Progress = type { i64, i64, i64, i64, i64, i64, i32, i32, i64, i64, i64, i64, i64, i64, i64, i64, i64, i64, %struct.curltime, %struct.curltime, %struct.curltime, %struct.curltime, %struct.curltime, i64, %struct.curltime, i64, [6 x i64], [6 x %struct.curltime], i32, i8 }
%struct.UrlState = type { ptr, %struct.curltime, i64, i64, %struct.dynbuf, ptr, ptr, ptr, i64, ptr, i32, i32, i32, ptr, i64, [3 x %struct.tempbuf], i32, i32, ptr, i64, i32, ptr, %struct.digestdata, %struct.digestdata, %struct.auth, %struct.auth, %struct.Curl_async, ptr, %struct.curltime, %struct.Curl_tree, %struct.Curl_llist, [15 x %struct.time_node], ptr, i8, i64, ptr, i64, i64, %struct.Curl_data_priority, ptr, ptr, ptr, %struct.urlpieces, ptr, ptr, ptr, ptr, ptr, i64, %struct.dynbuf, %struct.Curl_llist, [2 x %struct.curl_header], ptr, i32, ptr, %struct.dynamically_allocated_data, i8, i8, i8, i8, i24 }
%struct.tempbuf = type { %struct.dynbuf, i32, i8 }
%struct.digestdata = type { ptr, ptr, ptr, ptr, ptr, ptr, i32, i8, i8 }
%struct.auth = type { i64, i64, i64, i8 }
%struct.Curl_async = type { ptr, ptr, ptr, ptr, i32, i32, i8 }
%struct.Curl_tree = type { ptr, ptr, ptr, ptr, %struct.curltime, ptr }
%struct.time_node = type { %struct.Curl_llist_element, %struct.curltime, i32 }
%struct.urlpieces = type { ptr, ptr, ptr, ptr, ptr, ptr, ptr, ptr }
%struct.curl_header = type { ptr, ptr, i64, i64, i32, ptr }
%struct.dynamically_allocated_data = type { ptr, ptr, ptr, ptr, ptr, ptr, ptr, ptr, ptr, ptr, ptr, ptr, ptr, ptr }
%struct.PureInfo = type { i32, i32, i32, i64, i64, i64, i64, i64, ptr, ptr, i64, i32, [46 x i8], i32, i32, [46 x i8], i32, ptr, i32, %struct.curl_certinfo, i32, i8 }
%struct.curl_certinfo = type { i32, ptr }
%struct.curl_tlssessioninfo = type { i32, ptr }
%struct.cf_proxy_ctx = type { ptr }

@.str.17 = private unnamed_addr constant [6 x i8] c"close\00", align 1

; Function Attrs: nounwind uwtable
define internal void @http_proxy_cf_close(ptr noundef %0, ptr noundef %1) #0 {
  %3 = alloca ptr, align 8
  %4 = alloca ptr, align 8
  %5 = alloca ptr, align 8
  %6 = alloca ptr, align 8
  store ptr %0, ptr %3, align 8
  store ptr %1, ptr %4, align 8
  %7 = load ptr, ptr %3, align 8
  %8 = getelementptr inbounds %struct.Curl_cfilter, ptr %7, i32 0, i32 2
  %9 = load ptr, ptr %8, align 8
  store ptr %9, ptr %5, align 8
  br label %10

10:                                               ; preds = %2
  %11 = load ptr, ptr %4, align 8
  %12 = icmp ne ptr %11, null
  br i1 %12, label %13, label %35

13:                                               ; preds = %10
  %14 = load ptr, ptr %4, align 8
  %15 = getelementptr inbounds %struct.Curl_easy, ptr %14, i32 0, i32 16
  %16 = getelementptr inbounds %struct.UserDefined, ptr %15, i32 0, i32 122
  %17 = load i64, ptr %16, align 2
  %18 = lshr i64 %17, 28
  %19 = and i64 %18, 1
  %20 = trunc i64 %19 to i32
  %21 = icmp ne i32 %20, 0
  br i1 %21, label %22, label %35

22:                                               ; preds = %13
  %23 = load ptr, ptr %3, align 8
  %24 = icmp ne ptr %23, null
  br i1 %24, label %25, label %35

25:                                               ; preds = %22
  %26 = load ptr, ptr %3, align 8
  %27 = getelementptr inbounds %struct.Curl_cfilter, ptr %26, i32 0, i32 0
  %28 = load ptr, ptr %27, align 8
  %29 = getelementptr inbounds %struct.Curl_cftype, ptr %28, i32 0, i32 2
  %30 = load i32, ptr %29, align 4
  %31 = icmp sge i32 %30, 1
  br i1 %31, label %32, label %35

32:                                               ; preds = %25
  %33 = load ptr, ptr %4, align 8
  %34 = load ptr, ptr %3, align 8
  call void (ptr, ptr, ptr, ...) @Curl_trc_cf_infof(ptr noundef %33, ptr noundef %34, ptr noundef @.str.17)
  br label %35

35:                                               ; preds = %32, %25, %22, %13, %10
  br label %36

36:                                               ; preds = %35
  %37 = load ptr, ptr %3, align 8
  %38 = getelementptr inbounds %struct.Curl_cfilter, ptr %37, i32 0, i32 5
  %39 = load i8, ptr %38, align 4
  %40 = and i8 %39, -2
  %41 = or i8 %40, 0
  store i8 %41, ptr %38, align 4
  %42 = load ptr, ptr %5, align 8
  %43 = getelementptr inbounds %struct.cf_proxy_ctx, ptr %42, i32 0, i32 0
  %44 = load ptr, ptr %43, align 8
  %45 = icmp ne ptr %44, null
  br i1 %45, label %46, label %74

46:                                               ; preds = %36
  %47 = load ptr, ptr %3, align 8
  %48 = getelementptr inbounds %struct.Curl_cfilter, ptr %47, i32 0, i32 1
  %49 = load ptr, ptr %48, align 8
  store ptr %49, ptr %6, align 8
  br label %50

50:                                               ; preds = %67, %46
  %51 = load ptr, ptr %6, align 8
  %52 = icmp ne ptr %51, null
  br i1 %52, label %53, label %71

53:                                               ; preds = %50
  %54 = load ptr, ptr %6, align 8
  %55 = load ptr, ptr %5, align 8
  %56 = getelementptr inbounds %struct.cf_proxy_ctx, ptr %55, i32 0, i32 0
  %57 = load ptr, ptr %56, align 8
  %58 = icmp eq ptr %54, %57
  br i1 %58, label %59, label %66

59:                                               ; preds = %53
  %60 = load ptr, ptr %3, align 8
  %61 = load ptr, ptr %5, align 8
  %62 = getelementptr inbounds %struct.cf_proxy_ctx, ptr %61, i32 0, i32 0
  %63 = load ptr, ptr %62, align 8
  %64 = load ptr, ptr %4, align 8
  %65 = call zeroext i1 @Curl_conn_cf_discard_sub(ptr noundef %60, ptr noundef %63, ptr noundef %64, i1 noundef zeroext false)
  br label %71

66:                                               ; preds = %53
  br label %67

67:                                               ; preds = %66
  %68 = load ptr, ptr %6, align 8
  %69 = getelementptr inbounds %struct.Curl_cfilter, ptr %68, i32 0, i32 1
  %70 = load ptr, ptr %69, align 8
  store ptr %70, ptr %6, align 8
  br label %50, !llvm.loop !5

71:                                               ; preds = %59, %50
  %72 = load ptr, ptr %5, align 8
  %73 = getelementptr inbounds %struct.cf_proxy_ctx, ptr %72, i32 0, i32 0
  store ptr null, ptr %73, align 8
  br label %74

74:                                               ; preds = %71, %36
  %75 = load ptr, ptr %3, align 8
  %76 = getelementptr inbounds %struct.Curl_cfilter, ptr %75, i32 0, i32 1
  %77 = load ptr, ptr %76, align 8
  %78 = icmp ne ptr %77, null
  br i1 %78, label %79, label %91

79:                                               ; preds = %74
  %80 = load ptr, ptr %3, align 8
  %81 = getelementptr inbounds %struct.Curl_cfilter, ptr %80, i32 0, i32 1
  %82 = load ptr, ptr %81, align 8
  %83 = getelementptr inbounds %struct.Curl_cfilter, ptr %82, i32 0, i32 0
  %84 = load ptr, ptr %83, align 8
  %85 = getelementptr inbounds %struct.Curl_cftype, ptr %84, i32 0, i32 5
  %86 = load ptr, ptr %85, align 8
  %87 = load ptr, ptr %3, align 8
  %88 = getelementptr inbounds %struct.Curl_cfilter, ptr %87, i32 0, i32 1
  %89 = load ptr, ptr %88, align 8
  %90 = load ptr, ptr %4, align 8
  call void %86(ptr noundef %89, ptr noundef %90)
  br label %91

91:                                               ; preds = %79, %74
  ret void
}