; Function Attrs: nounwind uwtable
define internal void @http_proxy_cf_close(ptr noundef %0, ptr noundef %1) #2 {
  %3 = getelementptr inbounds nuw i8, ptr %0, i64 16
  %4 = load ptr, ptr %3, align 8
  %.not = icmp eq ptr %1, null
  br i1 %.not, label %15, label %5

5:                                                ; preds = %2
  %6 = getelementptr inbounds nuw i8, ptr %1, i64 2642
  %7 = load i64, ptr %6, align 2
  %8 = and i64 %7, 268435456
  %.not30 = icmp eq i64 %8, 0
  br i1 %.not30, label %15, label %9

9:                                                ; preds = %5
  %10 = load ptr, ptr %0, align 8
  %11 = getelementptr inbounds nuw i8, ptr %10, i64 12
  %12 = load i32, ptr %11, align 4
  %13 = icmp sgt i32 %12, 0
  br i1 %13, label %14, label %15

14:                                               ; preds = %9
  tail call void (ptr, ptr, ptr, ...) @Curl_trc_cf_infof(ptr noundef nonnull %1, ptr noundef nonnull %0, ptr noundef nonnull @.str.17) #5
  br label %15

15:                                               ; preds = %2, %5, %9, %14
  %16 = getelementptr inbounds nuw i8, ptr %0, i64 36
  %17 = load i8, ptr %16, align 4
  %18 = and i8 %17, -2
  store i8 %18, ptr %16, align 4
  %19 = load ptr, ptr %4, align 8
  %.not27 = icmp eq ptr %19, null
  br i1 %.not27, label %24, label %.preheader

.preheader:                                       ; preds = %15, %20
  %.pn = phi ptr [ %.0, %20 ], [ %0, %15 ]
  %.0.in = getelementptr inbounds nuw i8, ptr %.pn, i64 8
  %.0 = load ptr, ptr %.0.in, align 8
  %.not28 = icmp eq ptr %.0, null
  br i1 %.not28, label %.loopexit, label %20

20:                                               ; preds = %.preheader
  %21 = icmp eq ptr %.0, %19
  br i1 %21, label %22, label %.preheader, !llvm.loop !5

22:                                               ; preds = %20
  %23 = tail call zeroext i1 @Curl_conn_cf_discard_sub(ptr noundef %0, ptr noundef nonnull %19, ptr noundef %1, i1 noundef zeroext false) #5
  br label %.loopexit

.loopexit:                                        ; preds = %.preheader, %22
  store ptr null, ptr %4, align 8
  br label %24

24:                                               ; preds = %.loopexit, %15
  %25 = getelementptr inbounds nuw i8, ptr %0, i64 8
  %26 = load ptr, ptr %25, align 8
  %.not29 = icmp eq ptr %26, null
  br i1 %.not29, label %31, label %27

27:                                               ; preds = %24
  %28 = load ptr, ptr %26, align 8
  %29 = getelementptr inbounds nuw i8, ptr %28, i64 32
  %30 = load ptr, ptr %29, align 8
  tail call void %30(ptr noundef nonnull %26, ptr noundef %1) #5
  br label %31

31:                                               ; preds = %27, %24
  ret void
}